; Function Attrs: mustprogress nofree nounwind uwtable
define hidden void @_ZN14KlassInfoHisto4sortEv(ptr nocapture noundef nonnull readonly align 8 dereferenceable(16) %0) local_unnamed_addr #5 align 2 {
  %2 = getelementptr inbounds i8, ptr %0, i64 8
  %3 = load ptr, ptr %2, align 8
  %4 = getelementptr inbounds i8, ptr %3, i64 8
  %5 = load ptr, ptr %4, align 8
  %6 = icmp eq ptr %5, null
  br i1 %6, label %_ZN17GrowableArrayViewIP14KlassInfoEntryE4sortEPFiPS1_S3_E.exit, label %7

7:                                                ; preds = %1
  %8 = load i32, ptr %3, align 4
  %9 = sext i32 %8 to i64
  tail call void @qsort(ptr noundef nonnull %5, i64 noundef %9, i64 noundef 8, ptr noundef nonnull @_ZN14KlassInfoHisto11sort_helperEPP14KlassInfoEntryS2_) #15
  br label %_ZN17GrowableArrayViewIP14KlassInfoEntryE4sortEPFiPS1_S3_E.exit

_ZN17GrowableArrayViewIP14KlassInfoEntryE4sortEPFiPS1_S3_E.exit: ; preds = %1, %7
  ret void
}